; Function Attrs: mustprogress nofree nounwind willreturn memory(read) uwtable
define noundef i64 @_ZNK3net17PacketNumberQueue14NumPacketsSlowEv(ptr noundef nonnull readonly align 8 captures(address) dereferenceable(48) %0) local_unnamed_addr #13 align 2 {
  %2 = getelementptr inbounds nuw i8, ptr %0, i64 24
  %3 = load ptr, ptr %2, align 8, !tbaa !128
  %4 = getelementptr inbounds nuw i8, ptr %0, i64 8
  %.not8 = icmp eq ptr %3, %4
  br i1 %.not8, label %._crit_edge, label %.lr.ph

._crit_edge:                                      ; preds = %.lr.ph, %1
  %.0.lcssa = phi i64 [ 0, %1 ], [ %10, %.lr.ph ]
  ret i64 %.0.lcssa

.lr.ph:                                           ; preds = %1, %.lr.ph
  %.010 = phi i64 [ %10, %.lr.ph ], [ 0, %1 ]
  %.sroa.05.09 = phi ptr [ %11, %.lr.ph ], [ %3, %1 ]
  %5 = getelementptr inbounds nuw i8, ptr %.sroa.05.09, i64 32
  %6 = load i64, ptr %5, align 8, !tbaa !161
  %7 = getelementptr inbounds nuw i8, ptr %.sroa.05.09, i64 40
  %8 = load i64, ptr %7, align 8, !tbaa !163
  %9 = tail call noundef i64 @llvm.usub.sat.i64(i64 %8, i64 %6)
  %10 = add i64 %9, %.010
  %11 = tail call noundef ptr @_ZSt18_Rb_tree_incrementPKSt18_Rb_tree_node_base(ptr noundef %.sroa.05.09) #32
  %.not = icmp eq ptr %11, %4
  br i1 %.not, label %._crit_edge, label %.lr.ph
}